target datalayout = "e-m:e-p270:32:32-p271:32:32-p272:64:64-i64:64-i128:128-f80:128-n8:16:32:64-S128"
target triple = "x86_64-pc-linux-gnu"

%class.QString = type { %struct.QArrayDataPointer }
%struct.QArrayDataPointer = type { ptr, ptr, i64 }
%class.ShowPacketBytesDialog = type { %class.WiresharkDialog.base, ptr, ptr, %class.QByteArray, %class.QString, %class.QString, ptr, ptr, ptr, i8, i32, i32, %class.QImage }
%class.WiresharkDialog.base = type <{ %class.GeometryStateDialog, ptr, i8, [7 x i8], %class.QString, %class.QList, i32, i8 }>
%class.GeometryStateDialog = type { %class.QDialog, %class.QString, ptr }
%class.QDialog = type { %class.QWidget }
%class.QWidget = type { %class.QObject, %class.QPaintDevice.base, ptr }
%class.QObject = type { ptr, %class.QScopedPointer }
%class.QScopedPointer = type { ptr }
%class.QPaintDevice.base = type <{ ptr, i16 }>
%class.QList = type { %struct.QArrayDataPointer.0 }
%struct.QArrayDataPointer.0 = type { ptr, ptr, i64 }
%class.QByteArray = type { %struct.QArrayDataPointer.1 }
%struct.QArrayDataPointer.1 = type { ptr, ptr, i64 }
%class.QImage = type { %class.QPaintDevice.base, ptr }
%class.Ui_ShowPacketBytesDialog = type { ptr, ptr, ptr, ptr, ptr, ptr, ptr, ptr, ptr, ptr, ptr, ptr, ptr, ptr, ptr, ptr, ptr, ptr, ptr }
%class.ShowPacketBytesTextEdit = type <{ %class.QTextEdit, i8, i8, [6 x i8] }>
%class.QTextEdit = type { %class.QAbstractScrollArea }
%class.QAbstractScrollArea = type { %class.QFrame }
%class.QFrame = type { %class.QWidget }

; Function Attrs: mustprogress nounwind null_pointer_is_valid sspstrong uwtable
define linkonce_odr void @_ZN23ShowPacketBytesTextEdit15setMenusEnabledEb(ptr noundef align 8 dereferenceable_or_null(42) %0, i1 noundef zeroext %1) #7 comdat align 2 {
  %3 = alloca ptr, align 8
  %4 = alloca i8, align 1
  store ptr %0, ptr %3, align 8
  %5 = zext i1 %1 to i8
  store i8 %5, ptr %4, align 1
  %6 = load ptr, ptr %3, align 8
  %7 = load i8, ptr %4, align 1, !range !7, !noundef !8
  %8 = trunc i8 %7 to i1
  %9 = getelementptr inbounds nuw %class.ShowPacketBytesTextEdit, ptr %6, i32 0, i32 2
  %10 = zext i1 %8 to i8
  store i8 %10, ptr %9, align 1
  ret void
}

; Function Attrs: mustprogress null_pointer_is_valid sspstrong uwtable
define void @_ZN21ShowPacketBytesDialog17captureFileClosedEv(ptr noundef align 8 dereferenceable_or_null(296) %0) unnamed_addr #0 align 2 {
  %2 = alloca ptr, align 8
  store ptr %0, ptr %2, align 8
  %3 = load ptr, ptr %2, align 8
  %4 = getelementptr inbounds nuw %class.ShowPacketBytesDialog, ptr %3, i32 0, i32 1
  %5 = load ptr, ptr %4, align 8
  %6 = getelementptr inbounds nuw %class.Ui_ShowPacketBytesDialog, ptr %5, i32 0, i32 1
  %7 = load ptr, ptr %6, align 8
  call void @_ZN23ShowPacketBytesTextEdit15setMenusEnabledEb(ptr noundef align 8 dereferenceable_or_null(42) %7, i1 noundef zeroext false)
  %8 = getelementptr inbounds nuw %class.ShowPacketBytesDialog, ptr %3, i32 0, i32 1
  %9 = load ptr, ptr %8, align 8
  %10 = getelementptr inbounds nuw %class.Ui_ShowPacketBytesDialog, ptr %9, i32 0, i32 4
  %11 = load ptr, ptr %10, align 8
  call void @_ZN7QWidget10setEnabledEb(ptr noundef align 8 dereferenceable_or_null(40) %11, i1 noundef zeroext false)
  %12 = getelementptr inbounds nuw %class.ShowPacketBytesDialog, ptr %3, i32 0, i32 1
  %13 = load ptr, ptr %12, align 8
  %14 = getelementptr inbounds nuw %class.Ui_ShowPacketBytesDialog, ptr %13, i32 0, i32 5
  %15 = load ptr, ptr %14, align 8
  call void @_ZN7QWidget10setEnabledEb(ptr noundef align 8 dereferenceable_or_null(40) %15, i1 noundef zeroext false)
  %16 = getelementptr inbounds nuw %class.ShowPacketBytesDialog, ptr %3, i32 0, i32 1
  %17 = load ptr, ptr %16, align 8
  %18 = getelementptr inbounds nuw %class.Ui_ShowPacketBytesDialog, ptr %17, i32 0, i32 9
  %19 = load ptr, ptr %18, align 8
  call void @_ZN7QWidget10setEnabledEb(ptr noundef align 8 dereferenceable_or_null(40) %19, i1 noundef zeroext false)
  %20 = getelementptr inbounds nuw %class.ShowPacketBytesDialog, ptr %3, i32 0, i32 1
  %21 = load ptr, ptr %20, align 8
  %22 = getelementptr inbounds nuw %class.Ui_ShowPacketBytesDialog, ptr %21, i32 0, i32 10
  %23 = load ptr, ptr %22, align 8
  call void @_ZN7QWidget10setEnabledEb(ptr noundef align 8 dereferenceable_or_null(40) %23, i1 noundef zeroext false)
  %24 = getelementptr inbounds nuw %class.ShowPacketBytesDialog, ptr %3, i32 0, i32 1
  %25 = load ptr, ptr %24, align 8
  %26 = getelementptr inbounds nuw %class.Ui_ShowPacketBytesDialog, ptr %25, i32 0, i32 11
  %27 = load ptr, ptr %26, align 8
  call void @_ZN7QWidget10setEnabledEb(ptr noundef align 8 dereferenceable_or_null(40) %27, i1 noundef zeroext false)
  %28 = getelementptr inbounds nuw %class.ShowPacketBytesDialog, ptr %3, i32 0, i32 1
  %29 = load ptr, ptr %28, align 8
  %30 = getelementptr inbounds nuw %class.Ui_ShowPacketBytesDialog, ptr %29, i32 0, i32 12
  %31 = load ptr, ptr %30, align 8
  call void @_ZN7QWidget10setEnabledEb(ptr noundef align 8 dereferenceable_or_null(40) %31, i1 noundef zeroext false)
  call void @_ZN15WiresharkDialog17captureFileClosedEv(ptr noundef align 8 dereferenceable_or_null(141) %3)
  ret void
}