; Function Attrs: mustprogress null_pointer_is_valid sspstrong uwtable
define void @_ZN21ShowPacketBytesDialog17captureFileClosedEv(ptr noundef align 8 dereferenceable_or_null(296) %0) unnamed_addr #0 align 2 {
  %2 = getelementptr inbounds nuw i8, ptr %0, i64 144
  %3 = load ptr, ptr %2, align 8
  %4 = getelementptr inbounds nuw i8, ptr %3, i64 8
  %5 = load ptr, ptr %4, align 8
  %6 = getelementptr inbounds nuw i8, ptr %5, i64 41
  store i8 0, ptr %6, align 1
  %7 = load ptr, ptr %2, align 8
  %8 = getelementptr inbounds nuw i8, ptr %7, i64 32
  %9 = load ptr, ptr %8, align 8
  tail call void @_ZN7QWidget10setEnabledEb(ptr noundef align 8 dereferenceable_or_null(40) %9, i1 noundef zeroext false)
  %10 = load ptr, ptr %2, align 8
  %11 = getelementptr inbounds nuw i8, ptr %10, i64 40
  %12 = load ptr, ptr %11, align 8
  tail call void @_ZN7QWidget10setEnabledEb(ptr noundef align 8 dereferenceable_or_null(40) %12, i1 noundef zeroext false)
  %13 = load ptr, ptr %2, align 8
  %14 = getelementptr inbounds nuw i8, ptr %13, i64 72
  %15 = load ptr, ptr %14, align 8
  tail call void @_ZN7QWidget10setEnabledEb(ptr noundef align 8 dereferenceable_or_null(40) %15, i1 noundef zeroext false)
  %16 = load ptr, ptr %2, align 8
  %17 = getelementptr inbounds nuw i8, ptr %16, i64 80
  %18 = load ptr, ptr %17, align 8
  tail call void @_ZN7QWidget10setEnabledEb(ptr noundef align 8 dereferenceable_or_null(40) %18, i1 noundef zeroext false)
  %19 = load ptr, ptr %2, align 8
  %20 = getelementptr inbounds nuw i8, ptr %19, i64 88
  %21 = load ptr, ptr %20, align 8
  tail call void @_ZN7QWidget10setEnabledEb(ptr noundef align 8 dereferenceable_or_null(40) %21, i1 noundef zeroext false)
  %22 = load ptr, ptr %2, align 8
  %23 = getelementptr inbounds nuw i8, ptr %22, i64 96
  %24 = load ptr, ptr %23, align 8
  tail call void @_ZN7QWidget10setEnabledEb(ptr noundef align 8 dereferenceable_or_null(40) %24, i1 noundef zeroext false)
  tail call void @_ZN15WiresharkDialog17captureFileClosedEv(ptr noundef align 8 dereferenceable_or_null(141) %0)
  ret void
}